; Function Attrs: mustprogress noreturn uwtable
define void @_ZN8facebook5velox10createTypeILNS0_8TypeKindE35EEESt10shared_ptrIKNS0_4TypeEEOSt6vectorIS6_SaIS6_EE(ptr noalias nocapture readnone sret(%"class.std::shared_ptr") align 8 %agg.result, ptr nocapture noundef nonnull readnone align 8 dereferenceable(24) %0) local_unnamed_addr #15 personality ptr @__gxx_personality_v0 {
entry:
  %name = alloca %"class.std::__cxx11::basic_string", align 8
  %ref.tmp = alloca %"class.std::allocator.2", align 1
  call void @_ZNSaIcEC1Ev(ptr noundef nonnull align 1 dereferenceable(1) %ref.tmp) #37
  invoke void @_ZNSt7__cxx1112basic_stringIcSt11char_traitsIcESaIcEEC2IS3_EEPKcRKS3_(ptr noundef nonnull align 8 dereferenceable(32) %name, ptr noundef nonnull @.str.16, ptr noundef nonnull align 1 dereferenceable(1) %ref.tmp)
          to label %invoke.cont unwind label %lpad

invoke.cont:                                      ; preds = %entry
  call void @_ZNSaIcED1Ev(ptr noundef nonnull align 1 dereferenceable(1) %ref.tmp) #37
  call void @llvm.trap()
  unreachable

lpad:                                             ; preds = %entry
  %1 = landingpad { ptr, i32 }
          cleanup
  call void @_ZNSaIcED1Ev(ptr noundef nonnull align 1 dereferenceable(1) %ref.tmp) #37
  resume { ptr, i32 } %1
}